target datalayout = "e-m:e-p270:32:32-p271:32:32-p272:64:64-i64:64-i128:128-f80:128-n8:16:32:64-S128"
target triple = "x86_64-pc-linux-gnu"

%class.CryptData = type { [4 x %"struct.CryptData::KDF3CacheItem"], i32, [4 x i8], [4 x %"struct.CryptData::KDF5CacheItem"], i32, i32, %class.Rijndael, [256 x i32], [256 x i8], [4 x i32], [3 x i8], [4 x i16], [4 x i8] }
%"struct.CryptData::KDF3CacheItem" = type { %class.SecPassword, [8 x i8], [16 x i8], [16 x i8], i8, [7 x i8] }
%class.SecPassword = type <{ %"class.std::vector", i8, [7 x i8] }>
%"class.std::vector" = type { %"struct.std::_Vector_base" }
%"struct.std::_Vector_base" = type { %"struct.std::_Vector_base<wchar_t, std::allocator<wchar_t>>::_Vector_impl" }
%"struct.std::_Vector_base<wchar_t, std::allocator<wchar_t>>::_Vector_impl" = type { %"struct.std::_Vector_base<wchar_t, std::allocator<wchar_t>>::_Vector_impl_data" }
%"struct.std::_Vector_base<wchar_t, std::allocator<wchar_t>>::_Vector_impl_data" = type { ptr, ptr, ptr }
%"struct.CryptData::KDF5CacheItem" = type { %class.SecPassword, [16 x i8], [32 x i8], i32, [32 x i8], [32 x i8], [4 x i8] }
%class.Rijndael = type { i8, i32, [16 x i8], [15 x [4 x [4 x i8]]] }

; Function Attrs: mustprogress nounwind uwtable
define void @_ZN9CryptData9UpdKeys20EPh(ptr noundef nonnull align 8 dereferenceable(2516) %0, ptr noundef %1) #0 align 2 {
  %3 = alloca ptr, align 8
  %4 = alloca ptr, align 8
  %5 = alloca i32, align 4
  store ptr %0, ptr %3, align 8
  store ptr %1, ptr %4, align 8
  %6 = load ptr, ptr %3, align 8
  store i32 0, ptr %5, align 4
  br label %7

7:                                                ; preds = %66, %2
  %8 = load i32, ptr %5, align 4
  %9 = icmp slt i32 %8, 16
  br i1 %9, label %10, label %69

10:                                               ; preds = %7
  %11 = getelementptr inbounds %class.CryptData, ptr %6, i32 0, i32 7
  %12 = load ptr, ptr %4, align 8
  %13 = load i32, ptr %5, align 4
  %14 = sext i32 %13 to i64
  %15 = getelementptr inbounds i8, ptr %12, i64 %14
  %16 = load i8, ptr %15, align 1
  %17 = zext i8 %16 to i64
  %18 = getelementptr inbounds [256 x i32], ptr %11, i64 0, i64 %17
  %19 = load i32, ptr %18, align 4
  %20 = getelementptr inbounds %class.CryptData, ptr %6, i32 0, i32 9
  %21 = getelementptr inbounds [4 x i32], ptr %20, i64 0, i64 0
  %22 = load i32, ptr %21, align 8
  %23 = xor i32 %22, %19
  store i32 %23, ptr %21, align 8
  %24 = getelementptr inbounds %class.CryptData, ptr %6, i32 0, i32 7
  %25 = load ptr, ptr %4, align 8
  %26 = load i32, ptr %5, align 4
  %27 = add nsw i32 %26, 1
  %28 = sext i32 %27 to i64
  %29 = getelementptr inbounds i8, ptr %25, i64 %28
  %30 = load i8, ptr %29, align 1
  %31 = zext i8 %30 to i64
  %32 = getelementptr inbounds [256 x i32], ptr %24, i64 0, i64 %31
  %33 = load i32, ptr %32, align 4
  %34 = getelementptr inbounds %class.CryptData, ptr %6, i32 0, i32 9
  %35 = getelementptr inbounds [4 x i32], ptr %34, i64 0, i64 1
  %36 = load i32, ptr %35, align 4
  %37 = xor i32 %36, %33
  store i32 %37, ptr %35, align 4
  %38 = getelementptr inbounds %class.CryptData, ptr %6, i32 0, i32 7
  %39 = load ptr, ptr %4, align 8
  %40 = load i32, ptr %5, align 4
  %41 = add nsw i32 %40, 2
  %42 = sext i32 %41 to i64
  %43 = getelementptr inbounds i8, ptr %39, i64 %42
  %44 = load i8, ptr %43, align 1
  %45 = zext i8 %44 to i64
  %46 = getelementptr inbounds [256 x i32], ptr %38, i64 0, i64 %45
  %47 = load i32, ptr %46, align 4
  %48 = getelementptr inbounds %class.CryptData, ptr %6, i32 0, i32 9
  %49 = getelementptr inbounds [4 x i32], ptr %48, i64 0, i64 2
  %50 = load i32, ptr %49, align 8
  %51 = xor i32 %50, %47
  store i32 %51, ptr %49, align 8
  %52 = getelementptr inbounds %class.CryptData, ptr %6, i32 0, i32 7
  %53 = load ptr, ptr %4, align 8
  %54 = load i32, ptr %5, align 4
  %55 = add nsw i32 %54, 3
  %56 = sext i32 %55 to i64
  %57 = getelementptr inbounds i8, ptr %53, i64 %56
  %58 = load i8, ptr %57, align 1
  %59 = zext i8 %58 to i64
  %60 = getelementptr inbounds [256 x i32], ptr %52, i64 0, i64 %59
  %61 = load i32, ptr %60, align 4
  %62 = getelementptr inbounds %class.CryptData, ptr %6, i32 0, i32 9
  %63 = getelementptr inbounds [4 x i32], ptr %62, i64 0, i64 3
  %64 = load i32, ptr %63, align 4
  %65 = xor i32 %64, %61
  store i32 %65, ptr %63, align 4
  br label %66

66:                                               ; preds = %10
  %67 = load i32, ptr %5, align 4
  %68 = add nsw i32 %67, 4
  store i32 %68, ptr %5, align 4
  br label %7, !llvm.loop !15

69:                                               ; preds = %7
  ret void
}