; Function Attrs: mustprogress nofree norecurse nosync nounwind memory(argmem: readwrite) uwtable
define void @_ZN9CryptData9UpdKeys20EPh(ptr noundef nonnull align 8 captures(none) dereferenceable(2516) %0, ptr noundef readonly captures(none) %1) local_unnamed_addr #0 align 2 {
  %3 = getelementptr inbounds nuw i8, ptr %0, i64 1208
  %4 = getelementptr inbounds nuw i8, ptr %0, i64 2488
  %5 = getelementptr inbounds nuw i8, ptr %0, i64 2492
  %6 = getelementptr inbounds nuw i8, ptr %0, i64 2496
  %7 = getelementptr inbounds nuw i8, ptr %0, i64 2500
  %.promoted = load i32, ptr %4, align 8
  %.promoted10 = load i32, ptr %5, align 4
  %.promoted11 = load i32, ptr %6, align 8
  %.promoted12 = load i32, ptr %7, align 4
  br label %8

8:                                                ; preds = %2, %8
  %indvars.iv = phi i64 [ 0, %2 ], [ %indvars.iv.next, %8 ]
  %9 = phi i32 [ %.promoted, %2 ], [ %18, %8 ]
  %10 = phi i32 [ %.promoted10, %2 ], [ %25, %8 ]
  %11 = phi i32 [ %.promoted11, %2 ], [ %32, %8 ]
  %12 = phi i32 [ %.promoted12, %2 ], [ %39, %8 ]
  %13 = getelementptr inbounds nuw i8, ptr %1, i64 %indvars.iv
  %14 = load i8, ptr %13, align 1
  %15 = zext i8 %14 to i64
  %16 = getelementptr inbounds nuw [256 x i32], ptr %3, i64 0, i64 %15
  %17 = load i32, ptr %16, align 4
  %18 = xor i32 %9, %17
  store i32 %18, ptr %4, align 8
  %19 = or disjoint i64 %indvars.iv, 1
  %20 = getelementptr inbounds nuw i8, ptr %1, i64 %19
  %21 = load i8, ptr %20, align 1
  %22 = zext i8 %21 to i64
  %23 = getelementptr inbounds nuw [256 x i32], ptr %3, i64 0, i64 %22
  %24 = load i32, ptr %23, align 4
  %25 = xor i32 %10, %24
  store i32 %25, ptr %5, align 4
  %26 = or disjoint i64 %indvars.iv, 2
  %27 = getelementptr inbounds nuw i8, ptr %1, i64 %26
  %28 = load i8, ptr %27, align 1
  %29 = zext i8 %28 to i64
  %30 = getelementptr inbounds nuw [256 x i32], ptr %3, i64 0, i64 %29
  %31 = load i32, ptr %30, align 4
  %32 = xor i32 %11, %31
  store i32 %32, ptr %6, align 8
  %33 = or disjoint i64 %indvars.iv, 3
  %34 = getelementptr inbounds nuw i8, ptr %1, i64 %33
  %35 = load i8, ptr %34, align 1
  %36 = zext i8 %35 to i64
  %37 = getelementptr inbounds nuw [256 x i32], ptr %3, i64 0, i64 %36
  %38 = load i32, ptr %37, align 4
  %39 = xor i32 %12, %38
  store i32 %39, ptr %7, align 4
  %indvars.iv.next = add nuw nsw i64 %indvars.iv, 4
  %40 = icmp samesign ult i64 %indvars.iv, 12
  br i1 %40, label %8, label %41, !llvm.loop !14

41:                                               ; preds = %8
  ret void
}